target datalayout = "e-m:e-p270:32:32-p271:32:32-p272:64:64-i64:64-i128:128-f80:128-n8:16:32:64-S128"
target triple = "x86_64-pc-linux-gnu"

%struct.evp_cipher_ctx_st = type { ptr, ptr, i32, i32, [16 x i8], [16 x i8], [32 x i8], i32, ptr, i32, i32, i64, ptr, i32, i32, [32 x i8], i64, ptr, ptr }
%struct.EVP_AES_CCM_CTX = type { %union.anon.4, i32, i32, i32, i32, i32, i32, i32, %struct.ccm128_context, ptr }
%union.anon.4 = type { double, [240 x i8] }
%struct.ccm128_context = type { %union.anon.5, %union.anon.5, i64, ptr, ptr }
%union.anon.5 = type { [2 x i64] }

@OPENSSL_ia32cap_P = external global [0 x i32], align 4
@.str = private unnamed_addr constant [30 x i8] c"../openssl/crypto/evp/e_aes.c\00", align 1
@__func__.aes_ccm_init_key = private unnamed_addr constant [17 x i8] c"aes_ccm_init_key\00", align 1

; Function Attrs: nounwind uwtable
define internal i32 @aes_ccm_init_key(ptr noundef %0, ptr noundef %1, ptr noundef %2, i32 noundef %3) #0 {
  %5 = alloca i32, align 4
  %6 = alloca ptr, align 8
  %7 = alloca ptr, align 8
  %8 = alloca ptr, align 8
  %9 = alloca i32, align 4
  %10 = alloca ptr, align 8
  %11 = alloca i32, align 4
  %12 = alloca i32, align 4
  store ptr %0, ptr %6, align 8, !tbaa !7
  store ptr %1, ptr %7, align 8, !tbaa !10
  store ptr %2, ptr %8, align 8, !tbaa !10
  store i32 %3, ptr %9, align 4, !tbaa !3
  call void @llvm.lifetime.start.p0(i64 8, ptr %10) #4
  %13 = load ptr, ptr %6, align 8, !tbaa !7
  %14 = call ptr @EVP_CIPHER_CTX_get_cipher_data(ptr noundef %13)
  store ptr %14, ptr %10, align 8, !tbaa !12
  %15 = load ptr, ptr %8, align 8, !tbaa !10
  %16 = icmp eq ptr %15, null
  br i1 %16, label %17, label %21

17:                                               ; preds = %4
  %18 = load ptr, ptr %7, align 8, !tbaa !10
  %19 = icmp eq ptr %18, null
  br i1 %19, label %20, label %21

20:                                               ; preds = %17
  store i32 1, ptr %5, align 4
  store i32 1, ptr %11, align 4
  br label %97

21:                                               ; preds = %17, %4
  %22 = load ptr, ptr %7, align 8, !tbaa !10
  %23 = icmp ne ptr %22, null
  br i1 %23, label %24, label %81

24:                                               ; preds = %21
  call void @llvm.lifetime.start.p0(i64 4, ptr %12) #4
  %25 = load ptr, ptr %6, align 8, !tbaa !7
  %26 = call i32 @EVP_CIPHER_CTX_get_key_length(ptr noundef %25)
  %27 = mul nsw i32 %26, 8
  store i32 %27, ptr %12, align 4, !tbaa !3
  %28 = load i32, ptr %12, align 4, !tbaa !3
  %29 = icmp sle i32 %28, 0
  br i1 %29, label %30, label %31

30:                                               ; preds = %24
  call void @ERR_new()
  call void @ERR_set_debug(ptr noundef @.str, i32 noundef 3490, ptr noundef @__func__.aes_ccm_init_key)
  call void (i32, i32, ptr, ...) @ERR_set_error(i32 noundef 6, i32 noundef 130, ptr noundef null)
  store i32 0, ptr %5, align 4
  store i32 1, ptr %11, align 4
  br label %78

31:                                               ; preds = %24
  br label %32

32:                                               ; preds = %31
  %33 = load i32, ptr getelementptr inbounds ([0 x i32], ptr @OPENSSL_ia32cap_P, i64 0, i64 1), align 4, !tbaa !3
  %34 = and i32 %33, 512
  %35 = icmp ne i32 %34, 0
  br i1 %35, label %36, label %56

36:                                               ; preds = %32
  %37 = load ptr, ptr %7, align 8, !tbaa !10
  %38 = load i32, ptr %12, align 4, !tbaa !3
  %39 = load ptr, ptr %10, align 8, !tbaa !12
  %40 = getelementptr inbounds nuw %struct.EVP_AES_CCM_CTX, ptr %39, i32 0, i32 0
  %41 = call i32 @vpaes_set_encrypt_key(ptr noundef %37, i32 noundef %38, ptr noundef %40)
  %42 = load ptr, ptr %10, align 8, !tbaa !12
  %43 = getelementptr inbounds nuw %struct.EVP_AES_CCM_CTX, ptr %42, i32 0, i32 8
  %44 = load ptr, ptr %10, align 8, !tbaa !12
  %45 = getelementptr inbounds nuw %struct.EVP_AES_CCM_CTX, ptr %44, i32 0, i32 6
  %46 = load i32, ptr %45, align 4, !tbaa !49
  %47 = load ptr, ptr %10, align 8, !tbaa !12
  %48 = getelementptr inbounds nuw %struct.EVP_AES_CCM_CTX, ptr %47, i32 0, i32 5
  %49 = load i32, ptr %48, align 8, !tbaa !53
  %50 = load ptr, ptr %10, align 8, !tbaa !12
  %51 = getelementptr inbounds nuw %struct.EVP_AES_CCM_CTX, ptr %50, i32 0, i32 0
  call void @CRYPTO_ccm128_init(ptr noundef %43, i32 noundef %46, i32 noundef %49, ptr noundef %51, ptr noundef @vpaes_encrypt)
  %52 = load ptr, ptr %10, align 8, !tbaa !12
  %53 = getelementptr inbounds nuw %struct.EVP_AES_CCM_CTX, ptr %52, i32 0, i32 9
  store ptr null, ptr %53, align 8, !tbaa !54
  %54 = load ptr, ptr %10, align 8, !tbaa !12
  %55 = getelementptr inbounds nuw %struct.EVP_AES_CCM_CTX, ptr %54, i32 0, i32 1
  store i32 1, ptr %55, align 8, !tbaa !55
  br label %77

56:                                               ; preds = %32
  %57 = load ptr, ptr %7, align 8, !tbaa !10
  %58 = load i32, ptr %12, align 4, !tbaa !3
  %59 = load ptr, ptr %10, align 8, !tbaa !12
  %60 = getelementptr inbounds nuw %struct.EVP_AES_CCM_CTX, ptr %59, i32 0, i32 0
  %61 = call i32 @AES_set_encrypt_key(ptr noundef %57, i32 noundef %58, ptr noundef %60)
  %62 = load ptr, ptr %10, align 8, !tbaa !12
  %63 = getelementptr inbounds nuw %struct.EVP_AES_CCM_CTX, ptr %62, i32 0, i32 8
  %64 = load ptr, ptr %10, align 8, !tbaa !12
  %65 = getelementptr inbounds nuw %struct.EVP_AES_CCM_CTX, ptr %64, i32 0, i32 6
  %66 = load i32, ptr %65, align 4, !tbaa !49
  %67 = load ptr, ptr %10, align 8, !tbaa !12
  %68 = getelementptr inbounds nuw %struct.EVP_AES_CCM_CTX, ptr %67, i32 0, i32 5
  %69 = load i32, ptr %68, align 8, !tbaa !53
  %70 = load ptr, ptr %10, align 8, !tbaa !12
  %71 = getelementptr inbounds nuw %struct.EVP_AES_CCM_CTX, ptr %70, i32 0, i32 0
  call void @CRYPTO_ccm128_init(ptr noundef %63, i32 noundef %66, i32 noundef %69, ptr noundef %71, ptr noundef @AES_encrypt)
  %72 = load ptr, ptr %10, align 8, !tbaa !12
  %73 = getelementptr inbounds nuw %struct.EVP_AES_CCM_CTX, ptr %72, i32 0, i32 9
  store ptr null, ptr %73, align 8, !tbaa !54
  %74 = load ptr, ptr %10, align 8, !tbaa !12
  %75 = getelementptr inbounds nuw %struct.EVP_AES_CCM_CTX, ptr %74, i32 0, i32 1
  store i32 1, ptr %75, align 8, !tbaa !55
  br label %76

76:                                               ; preds = %56
  br label %77

77:                                               ; preds = %76, %36
  store i32 0, ptr %11, align 4
  br label %78

78:                                               ; preds = %77, %30
  call void @llvm.lifetime.end.p0(i64 4, ptr %12) #4
  %79 = load i32, ptr %11, align 4
  switch i32 %79, label %97 [
    i32 0, label %80
  ]

80:                                               ; preds = %78
  br label %81

81:                                               ; preds = %80, %21
  %82 = load ptr, ptr %8, align 8, !tbaa !10
  %83 = icmp ne ptr %82, null
  br i1 %83, label %84, label %96

84:                                               ; preds = %81
  %85 = load ptr, ptr %6, align 8, !tbaa !7
  %86 = getelementptr inbounds nuw %struct.evp_cipher_ctx_st, ptr %85, i32 0, i32 5
  %87 = getelementptr inbounds [16 x i8], ptr %86, i64 0, i64 0
  %88 = load ptr, ptr %8, align 8, !tbaa !10
  %89 = load ptr, ptr %10, align 8, !tbaa !12
  %90 = getelementptr inbounds nuw %struct.EVP_AES_CCM_CTX, ptr %89, i32 0, i32 5
  %91 = load i32, ptr %90, align 8, !tbaa !53
  %92 = sub nsw i32 15, %91
  %93 = sext i32 %92 to i64
  call void @llvm.memcpy.p0.p0.i64(ptr align 8 %87, ptr align 1 %88, i64 %93, i1 false)
  %94 = load ptr, ptr %10, align 8, !tbaa !12
  %95 = getelementptr inbounds nuw %struct.EVP_AES_CCM_CTX, ptr %94, i32 0, i32 2
  store i32 1, ptr %95, align 4, !tbaa !56
  br label %96

96:                                               ; preds = %84, %81
  store i32 1, ptr %5, align 4
  store i32 1, ptr %11, align 4
  br label %97

97:                                               ; preds = %96, %78, %20
  call void @llvm.lifetime.end.p0(i64 8, ptr %10) #4
  %98 = load i32, ptr %5, align 4
  ret i32 %98
}