; Function Attrs: nounwind uwtable
define internal range(i32 0, 2) i32 @aes_ccm_init_key(ptr noundef %0, ptr noundef %1, ptr noundef readonly captures(address_is_null) %2, i32 %3) #2 {
  %5 = tail call ptr @EVP_CIPHER_CTX_get_cipher_data(ptr noundef %0) #8
  %6 = icmp eq ptr %2, null
  %7 = icmp eq ptr %1, null
  %or.cond = and i1 %7, %6
  br i1 %or.cond, label %35, label %8

8:                                                ; preds = %4
  br i1 %7, label %.thread, label %9

9:                                                ; preds = %8
  %10 = tail call i32 @EVP_CIPHER_CTX_get_key_length(ptr noundef %0) #8
  %11 = shl nsw i32 %10, 3
  %12 = icmp sgt i32 %10, 0
  br i1 %12, label %13, label %25

13:                                               ; preds = %9
  %14 = load i32, ptr getelementptr inbounds nuw (i8, ptr @OPENSSL_ia32cap_P, i64 4), align 4, !tbaa !3
  %15 = and i32 %14, 512
  %.not35 = icmp eq i32 %15, 0
  %16 = getelementptr inbounds nuw i8, ptr %5, i64 280
  %17 = getelementptr inbounds nuw i8, ptr %5, i64 268
  %18 = getelementptr inbounds nuw i8, ptr %5, i64 264
  %19 = getelementptr inbounds nuw i8, ptr %5, i64 336
  %20 = getelementptr inbounds nuw i8, ptr %5, i64 248
  br i1 %.not35, label %23, label %21

21:                                               ; preds = %13
  %22 = tail call i32 @vpaes_set_encrypt_key(ptr noundef nonnull %1, i32 noundef %11, ptr noundef %5) #8
  br label %.thread.sink.split

23:                                               ; preds = %13
  %24 = tail call i32 @AES_set_encrypt_key(ptr noundef nonnull %1, i32 noundef %11, ptr noundef %5) #8
  br label %.thread.sink.split

25:                                               ; preds = %9
  tail call void @ERR_new() #8
  tail call void @ERR_set_debug(ptr noundef nonnull @.str, i32 noundef 3490, ptr noundef nonnull @__func__.aes_ccm_init_key) #8
  tail call void (i32, i32, ptr, ...) @ERR_set_error(i32 noundef 6, i32 noundef 130, ptr noundef null) #8
  br label %35

.thread.sink.split:                               ; preds = %21, %23
  %AES_encrypt.sink = phi ptr [ @AES_encrypt, %23 ], [ @vpaes_encrypt, %21 ]
  %26 = load i32, ptr %17, align 4, !tbaa !44
  %27 = load i32, ptr %18, align 8, !tbaa !48
  tail call void @CRYPTO_ccm128_init(ptr noundef nonnull %16, i32 noundef %26, i32 noundef %27, ptr noundef %5, ptr noundef nonnull %AES_encrypt.sink) #8
  store ptr null, ptr %19, align 8, !tbaa !49
  store i32 1, ptr %20, align 8, !tbaa !50
  br label %.thread

.thread:                                          ; preds = %.thread.sink.split, %8
  br i1 %6, label %35, label %28

28:                                               ; preds = %.thread
  %29 = getelementptr inbounds nuw i8, ptr %0, i64 40
  %30 = getelementptr inbounds nuw i8, ptr %5, i64 264
  %31 = load i32, ptr %30, align 8, !tbaa !48
  %32 = sub nsw i32 15, %31
  %33 = sext i32 %32 to i64
  tail call void @llvm.memcpy.p0.p0.i64(ptr nonnull align 8 %29, ptr nonnull align 1 %2, i64 %33, i1 false)
  %34 = getelementptr inbounds nuw i8, ptr %5, i64 252
  store i32 1, ptr %34, align 4, !tbaa !51
  br label %35

35:                                               ; preds = %25, %.thread, %28, %4
  %.0 = phi i32 [ 0, %25 ], [ 1, %4 ], [ 1, %28 ], [ 1, %.thread ]
  ret i32 %.0
}